target datalayout = "e-m:e-p270:32:32-p271:32:32-p272:64:64-i64:64-i128:128-f80:128-n8:16:32:64-S128"
target triple = "x86_64-pc-linux-gnu"

@.str = private unnamed_addr constant [17 x i8] c"test_rand_status\00", align 1
@.str.1 = private unnamed_addr constant [35 x i8] c"../openssl/test/rand_status_test.c\00", align 1
@.str.2 = private unnamed_addr constant [14 x i8] c"RAND_status()\00", align 1

; Function Attrs: nounwind uwtable
define dso_local i32 @setup_tests() #0 {
  call void @add_test(ptr noundef @.str, ptr noundef @test_rand_status)
  ret i32 1
}

declare void @add_test(ptr noundef, ptr noundef) #1

; Function Attrs: nounwind uwtable
define internal i32 @test_rand_status() #0 {
  %1 = call i32 @RAND_status()
  %2 = icmp ne i32 %1, 0
  %3 = zext i1 %2 to i32
  %4 = call i32 @test_true(ptr noundef @.str.1, i32 noundef 20, ptr noundef @.str.2, i32 noundef %3)
  ret i32 %4
}

declare i32 @test_true(ptr noundef, i32 noundef, ptr noundef, i32 noundef) #1

declare i32 @RAND_status() #1


!llvm.module.flags = !{!0, !1, !2, !3}

!0 = !{i32 1, !"wchar_size", i32 4}
!1 = !{i32 8, !"PIC Level", i32 2}
!2 = !{i32 7, !"PIE Level", i32 2}
!3 = !{i32 7, !"uwtable", i32 2}
